; Function Attrs: nounwind uwtable
define internal void @obj_value_changed_event_cb(ptr noundef %0) #0 {
  %2 = tail call ptr @lv_event_get_current_target(ptr noundef %0) #9
  %3 = tail call ptr @lv_event_get_user_data(ptr noundef %0) #9
  %4 = tail call zeroext i1 @lv_obj_has_state(ptr noundef %2, i16 noundef zeroext 1) #9
  %5 = getelementptr inbounds nuw i8, ptr %3, i64 48
  %6 = load i32, ptr %5, align 8
  %7 = and i32 %6, 15
  %.not.i = icmp eq i32 %7, 2
  br i1 %.not.i, label %8, label %lv_subject_set_int.exit

8:                                                ; preds = %1
  %9 = zext i1 %4 to i32
  %10 = getelementptr inbounds nuw i8, ptr %3, i64 24
  %11 = load i32, ptr %10, align 8, !tbaa !3
  %12 = getelementptr inbounds nuw i8, ptr %3, i64 32
  store i32 %11, ptr %12, align 8, !tbaa !3
  store i32 %9, ptr %10, align 8, !tbaa !3
  %.not.i.i = icmp eq i32 %11, %9
  br i1 %.not.i.i, label %lv_subject_set_int.exit, label %.sink.split.i.i

.sink.split.i.i:                                  ; preds = %8
  tail call void @lv_subject_notify(ptr noundef nonnull %3)
  br label %lv_subject_set_int.exit

lv_subject_set_int.exit:                          ; preds = %1, %8, %.sink.split.i.i
  ret void
}